target datalayout = "e-m:e-p270:32:32-p271:32:32-p272:64:64-i64:64-i128:128-f80:128-n8:16:32:64-S128"
target triple = "x86_64-pc-linux-gnu"

%struct.FunctionCallInfoBaseData = type { ptr, ptr, ptr, i32, i8, i16, [0 x %struct.NullableDatum] }
%struct.NullableDatum = type { i64, i8 }
%struct.size_pretty_unit = type { ptr, i32, i8, i8 }

@.str.3 = private unnamed_addr constant [7 x i8] c"%ld %s\00", align 1

; Function Attrs: inlinehint nounwind uwtable
define internal i64 @PointerGetDatum(ptr noundef %0) #2 {
  %2 = alloca ptr, align 8
  store ptr %0, ptr %2, align 8
  %3 = load ptr, ptr %2, align 8
  %4 = ptrtoint ptr %3 to i64
  ret i64 %4
}

; Function Attrs: inlinehint nounwind uwtable
define internal i64 @DatumGetInt64(i64 noundef %0) #2 {
  %2 = alloca i64, align 8
  store i64 %0, ptr %2, align 8
  %3 = load i64, ptr %2, align 8
  ret i64 %3
}

; Function Attrs: nounwind uwtable
define dso_local i64 @pg_size_pretty(ptr noundef %0) #0 {
  %2 = alloca ptr, align 8
  %3 = alloca i64, align 8
  %4 = alloca [64 x i8], align 16
  %5 = alloca ptr, align 8
  %6 = alloca i8, align 1
  %7 = alloca i64, align 8
  %8 = alloca i32, align 4
  store ptr %0, ptr %2, align 8
  call void @llvm.lifetime.start.p0(i64 8, ptr %3) #10
  %9 = load ptr, ptr %2, align 8
  %10 = getelementptr inbounds nuw %struct.FunctionCallInfoBaseData, ptr %9, i32 0, i32 6
  %11 = getelementptr inbounds [0 x %struct.NullableDatum], ptr %10, i64 0, i64 0
  %12 = getelementptr inbounds nuw %struct.NullableDatum, ptr %11, i32 0, i32 0
  %13 = load i64, ptr %12, align 8
  %14 = call i64 @DatumGetInt64(i64 noundef %13)
  store i64 %14, ptr %3, align 8
  call void @llvm.lifetime.start.p0(i64 64, ptr %4) #10
  call void @llvm.lifetime.start.p0(i64 8, ptr %5) #10
  store ptr @size_pretty_units, ptr %5, align 8
  br label %15

15:                                               ; preds = %100, %1
  %16 = load ptr, ptr %5, align 8
  %17 = getelementptr inbounds nuw %struct.size_pretty_unit, ptr %16, i32 0, i32 0
  %18 = load ptr, ptr %17, align 8
  %19 = icmp ne ptr %18, null
  br i1 %19, label %20, label %103

20:                                               ; preds = %15
  call void @llvm.lifetime.start.p0(i64 1, ptr %6) #10
  call void @llvm.lifetime.start.p0(i64 8, ptr %7) #10
  %21 = load i64, ptr %3, align 8
  %22 = icmp slt i64 %21, 0
  br i1 %22, label %23, label %26

23:                                               ; preds = %20
  %24 = load i64, ptr %3, align 8
  %25 = sub i64 0, %24
  br label %28

26:                                               ; preds = %20
  %27 = load i64, ptr %3, align 8
  br label %28

28:                                               ; preds = %26, %23
  %29 = phi i64 [ %25, %23 ], [ %27, %26 ]
  store i64 %29, ptr %7, align 8
  %30 = load ptr, ptr %5, align 8
  %31 = getelementptr inbounds %struct.size_pretty_unit, ptr %30, i64 1
  %32 = getelementptr inbounds nuw %struct.size_pretty_unit, ptr %31, i32 0, i32 0
  %33 = load ptr, ptr %32, align 8
  %34 = icmp eq ptr %33, null
  br i1 %34, label %42, label %35

35:                                               ; preds = %28
  %36 = load i64, ptr %7, align 8
  %37 = load ptr, ptr %5, align 8
  %38 = getelementptr inbounds nuw %struct.size_pretty_unit, ptr %37, i32 0, i32 1
  %39 = load i32, ptr %38, align 8
  %40 = zext i32 %39 to i64
  %41 = icmp ult i64 %36, %40
  br i1 %41, label %42, label %62

42:                                               ; preds = %35, %28
  %43 = load ptr, ptr %5, align 8
  %44 = getelementptr inbounds nuw %struct.size_pretty_unit, ptr %43, i32 0, i32 2
  %45 = load i8, ptr %44, align 4, !range !8, !noundef !9
  %46 = trunc i8 %45 to i1
  br i1 %46, label %47, label %55

47:                                               ; preds = %42
  %48 = load i64, ptr %3, align 8
  %49 = load i64, ptr %3, align 8
  %50 = icmp slt i64 %49, 0
  %51 = select i1 %50, i32 -1, i32 1
  %52 = sext i32 %51 to i64
  %53 = add i64 %48, %52
  %54 = sdiv i64 %53, 2
  store i64 %54, ptr %3, align 8
  br label %55

55:                                               ; preds = %47, %42
  %56 = getelementptr inbounds [64 x i8], ptr %4, i64 0, i64 0
  %57 = load i64, ptr %3, align 8
  %58 = load ptr, ptr %5, align 8
  %59 = getelementptr inbounds nuw %struct.size_pretty_unit, ptr %58, i32 0, i32 0
  %60 = load ptr, ptr %59, align 8
  %61 = call i32 (ptr, i64, ptr, ...) @pg_snprintf(ptr noundef %56, i64 noundef 64, ptr noundef @.str.3, i64 noundef %57, ptr noundef %60)
  store i32 2, ptr %8, align 4
  br label %97

62:                                               ; preds = %35
  %63 = load ptr, ptr %5, align 8
  %64 = getelementptr inbounds %struct.size_pretty_unit, ptr %63, i64 1
  %65 = getelementptr inbounds nuw %struct.size_pretty_unit, ptr %64, i32 0, i32 3
  %66 = load i8, ptr %65, align 1
  %67 = zext i8 %66 to i32
  %68 = load ptr, ptr %5, align 8
  %69 = getelementptr inbounds nuw %struct.size_pretty_unit, ptr %68, i32 0, i32 3
  %70 = load i8, ptr %69, align 1
  %71 = zext i8 %70 to i32
  %72 = sub i32 %67, %71
  %73 = load ptr, ptr %5, align 8
  %74 = getelementptr inbounds %struct.size_pretty_unit, ptr %73, i64 1
  %75 = getelementptr inbounds nuw %struct.size_pretty_unit, ptr %74, i32 0, i32 2
  %76 = load i8, ptr %75, align 4, !range !8, !noundef !9
  %77 = trunc i8 %76 to i1
  %78 = zext i1 %77 to i32
  %79 = icmp eq i32 %78, 1
  %80 = zext i1 %79 to i32
  %81 = sub i32 %72, %80
  %82 = load ptr, ptr %5, align 8
  %83 = getelementptr inbounds nuw %struct.size_pretty_unit, ptr %82, i32 0, i32 2
  %84 = load i8, ptr %83, align 4, !range !8, !noundef !9
  %85 = trunc i8 %84 to i1
  %86 = zext i1 %85 to i32
  %87 = icmp eq i32 %86, 1
  %88 = zext i1 %87 to i32
  %89 = add i32 %81, %88
  %90 = trunc i32 %89 to i8
  store i8 %90, ptr %6, align 1
  %91 = load i8, ptr %6, align 1
  %92 = zext i8 %91 to i32
  %93 = zext i32 %92 to i64
  %94 = shl i64 1, %93
  %95 = load i64, ptr %3, align 8
  %96 = sdiv i64 %95, %94
  store i64 %96, ptr %3, align 8
  store i32 0, ptr %8, align 4
  br label %97

97:                                               ; preds = %62, %55
  call void @llvm.lifetime.end.p0(i64 8, ptr %7) #10
  call void @llvm.lifetime.end.p0(i64 1, ptr %6) #10
  %98 = load i32, ptr %8, align 4
  switch i32 %98, label %107 [
    i32 0, label %99
    i32 2, label %103
  ]

99:                                               ; preds = %97
  br label %100

100:                                              ; preds = %99
  %101 = load ptr, ptr %5, align 8
  %102 = getelementptr inbounds nuw %struct.size_pretty_unit, ptr %101, i32 1
  store ptr %102, ptr %5, align 8
  br label %15, !llvm.loop !12

103:                                              ; preds = %97, %15
  %104 = getelementptr inbounds [64 x i8], ptr %4, i64 0, i64 0
  %105 = call ptr @cstring_to_text(ptr noundef %104)
  %106 = call i64 @PointerGetDatum(ptr noundef %105)
  store i32 1, ptr %8, align 4
  call void @llvm.lifetime.end.p0(i64 8, ptr %5) #10
  call void @llvm.lifetime.end.p0(i64 64, ptr %4) #10
  call void @llvm.lifetime.end.p0(i64 8, ptr %3) #10
  ret i64 %106

107:                                              ; preds = %97
  unreachable
}