; Function Attrs: nounwind uwtable
define dso_local i64 @pg_size_pretty(ptr noundef readonly captures(none) %0) local_unnamed_addr #0 {
  %2 = alloca [64 x i8], align 16
  %3 = getelementptr inbounds nuw i8, ptr %0, i64 32
  %4 = load i64, ptr %3, align 8
  call void @llvm.lifetime.start.p0(i64 64, ptr nonnull %2) #9
  br label %5

5:                                                ; preds = %1, %22
  %6 = phi ptr [ @.str.23, %1 ], [ %38, %22 ]
  %7 = phi ptr [ getelementptr inbounds nuw (i8, ptr @size_pretty_units, i64 16), %1 ], [ %37, %22 ]
  %.0213036 = phi ptr [ @size_pretty_units, %1 ], [ %7, %22 ]
  %.0203135 = phi i64 [ %4, %1 ], [ %36, %22 ]
  %8 = phi ptr [ @.str.22, %1 ], [ %6, %22 ]
  %9 = tail call i64 @llvm.abs.i64(i64 %.0203135, i1 false)
  %10 = getelementptr inbounds nuw i8, ptr %.0213036, i64 8
  %11 = load i32, ptr %10, align 8
  %12 = zext i32 %11 to i64
  %13 = icmp ult i64 %9, %12
  br i1 %13, label %14, label %22

14:                                               ; preds = %5, %22
  %.lcssa = phi ptr [ %8, %5 ], [ %6, %22 ]
  %.02031.lcssa = phi i64 [ %.0203135, %5 ], [ %36, %22 ]
  %.02130.lcssa = phi ptr [ %.0213036, %5 ], [ getelementptr inbounds nuw (i8, ptr @size_pretty_units, i64 80), %22 ]
  %15 = getelementptr inbounds nuw i8, ptr %.02130.lcssa, i64 12
  %16 = load i8, ptr %15, align 4, !range !11, !noundef !12
  %17 = trunc nuw i8 %16 to i1
  br i1 %17, label %18, label %.loopexit

18:                                               ; preds = %14
  %.inv = icmp sgt i64 %.02031.lcssa, -1
  %19 = select i1 %.inv, i64 1, i64 -1
  %20 = add i64 %19, %.02031.lcssa
  %21 = sdiv i64 %20, 2
  br label %.loopexit

22:                                               ; preds = %5
  %23 = getelementptr inbounds nuw i8, ptr %.0213036, i64 29
  %24 = load i8, ptr %23, align 1
  %25 = getelementptr inbounds nuw i8, ptr %.0213036, i64 13
  %26 = load i8, ptr %25, align 1
  %27 = getelementptr inbounds nuw i8, ptr %.0213036, i64 28
  %28 = load i8, ptr %27, align 4, !range !11, !noundef !12
  %29 = getelementptr inbounds nuw i8, ptr %.0213036, i64 12
  %30 = load i8, ptr %29, align 4, !range !11, !noundef !12
  %31 = add i8 %26, %28
  %32 = sub i8 %24, %31
  %33 = add i8 %32, %30
  %34 = zext nneg i8 %33 to i64
  %35 = shl nuw i64 1, %34
  %36 = sdiv i64 %.0203135, %35
  %37 = getelementptr inbounds nuw i8, ptr %7, i64 16
  %38 = load ptr, ptr %37, align 8
  %39 = icmp eq ptr %38, null
  br i1 %39, label %14, label %5

.loopexit:                                        ; preds = %18, %14
  %.1 = phi i64 [ %21, %18 ], [ %.02031.lcssa, %14 ]
  %40 = call i32 (ptr, i64, ptr, ...) @pg_snprintf(ptr noundef nonnull %2, i64 noundef 64, ptr noundef nonnull @.str.3, i64 noundef %.1, ptr noundef nonnull %.lcssa) #9
  %41 = call ptr @cstring_to_text(ptr noundef nonnull %2) #9
  %42 = ptrtoint ptr %41 to i64
  call void @llvm.lifetime.end.p0(i64 64, ptr nonnull %2) #9
  ret i64 %42
}